Certificate:
    Data:
        Version: 3 (0x2)
        Serial Number: 17 (0x11)
    Signature Algorithm: sha256WithRSAEncryption
        Issuer: C=ZH, ST=HLJ, L=HEB, O=HIT, OU=HIT, CN=rocwangp/emailAddress=wangpeng29029@163.com
        Validity
            Not Before: Apr 29 05:19:47 2018 GMT
            Not After : Apr 29 05:19:47 2019 GMT
        Subject: C=ZH, ST=HLJ, O=HIT, OU=HIT, CN=rocwangp/emailAddress=wangpeng29029@163.con
        Subject Public Key Info:
            Public Key Algorithm: rsaEncryption
                Public-Key: (2048 bit)
                Modulus:
                    00:ca:eb:87:b7:f4:63:33:82:79:9f:95:3f:8b:7e:
                    35:b8:db:6e:be:79:a0:be:c9:0e:6f:80:4a:28:a8:
                    ea:03:94:b4:74:84:f1:0a:3d:b6:34:33:bf:4d:d2:
                    57:85:1e:e5:e6:aa:b3:78:b4:51:30:bb:f8:76:2d:
                    84:f5:c5:fa:bd:d2:f8:59:2a:5c:00:55:e2:d0:8a:
                    9c:57:43:c6:0f:36:00:8b:68:b9:45:3d:3a:84:9c:
                    18:6c:86:24:80:ff:3e:f1:74:09:77:b9:e2:13:b4:
                    ed:35:41:1c:68:a2:89:e6:3d:4a:70:1c:c9:0a:be:
                    c1:df:d3:c3:3b:b7:49:c8:cc:9c:31:b0:72:a6:6a:
                    e3:ce:d0:85:d5:b4:6b:ff:1e:aa:9c:d2:d7:9a:42:
                    d6:a8:09:f4:c9:8b:20:b2:10:43:f6:9a:e3:12:a1:
                    b9:1a:eb:d9:72:5e:de:9c:09:c6:b4:20:15:63:b1:
                    33:21:68:48:25:23:e1:49:c3:c7:7c:1a:bd:dc:04:
                    ab:8b:e2:e4:df:56:ee:a1:0a:9e:a1:ec:86:4c:48:
                    00:b4:fe:00:b6:a0:12:aa:8b:52:fb:5f:f1:8d:b0:
                    08:cc:96:09:04:bd:dc:7e:fd:cd:90:e2:dc:07:c9:
                    f9:47:83:73:7e:03:23:b7:b2:8a:78:44:e9:b8:2c:
                    64:c3
                Exponent: 65537 (0x10001)
        X509v3 extensions:
            X509v3 Basic Constraints: 
                CA:FALSE
            Netscape Comment: 
                OpenSSL Generated Certificate
            X509v3 Subject Key Identifier: 
                C2:F4:4A:0E:01:8D:A1:21:0C:08:18:98:64:6F:1C:7D:23:27:69:37
            X509v3 Authority Key Identifier: 
                keyid:1D:58:DC:D0:78:07:83:15:38:48:72:88:A7:70:67:35:25:50:E9:11

    Signature Algorithm: sha256WithRSAEncryption
         8e:54:e3:3b:ab:c8:63:1f:4d:6c:99:32:67:ae:0f:12:27:2c:
         14:df:e3:e0:c4:27:67:d5:3d:2b:11:ae:2d:f9:38:c7:73:20:
         c9:d4:62:31:0a:fa:8d:ba:76:f1:fa:de:82:34:54:9c:7d:d2:
         0f:16:0e:f9:09:66:74:f0:c8:57:a8:cb:86:3b:9d:5d:f2:0e:
         46:ce:15:73:a1:53:69:e8:f6:95:cd:95:0b:ea:72:f2:a5:5d:
         94:ab:3a:95:8a:54:f3:f3:75:b7:29:63:50:dc:89:10:89:73:
         07:cf:0d:70:9a:5d:da:26:92:a9:99:85:ec:13:89:4f:bc:1a:
         35:d2:76:e6:d2:c9:69:b6:2f:61:94:a0:c6:6b:5e:90:b3:a4:
         27:05:99:66:c4:15:89:6c:be:d8:8b:b8:4e:40:8b:9f:b3:13:
         ec:67:86:71:78:6f:84:f5:97:26:cc:f3:ba:eb:3f:82:8c:57:
         c2:24:1f:52:68:b0:b6:a1:cc:ab:12:34:62:8c:b8:42:f0:4b:
         bb:13:e1:4f:d2:a3:a7:d6:65:31:d2:cd:32:cd:f3:8f:55:52:
         e4:94:df:a6:f9:66:d0:8a:12:03:13:23:a5:82:14:16:2d:58:
         c3:d4:c2:4f:29:64:f1:63:db:9e:11:6a:9a:0b:e5:13:b0:89:
         c1:ac:69:19
-----BEGIN CERTIFICATE-----
MIID5DCCAsygAwIBAgIBETANBgkqhkiG9w0BAQsFADB+MQswCQYDVQQGEwJaSDEM
MAoGA1UECAwDSExKMQwwCgYDVQQHDANIRUIxDDAKBgNVBAoMA0hJVDEMMAoGA1UE
CwwDSElUMREwDwYDVQQDDAhyb2N3YW5ncDEkMCIGCSqGSIb3DQEJARYVd2FuZ3Bl
bmcyOTAyOUAxNjMuY29tMB4XDTE4MDQyOTA1MTk0N1oXDTE5MDQyOTA1MTk0N1ow
cDELMAkGA1UEBhMCWkgxDDAKBgNVBAgMA0hMSjEMMAoGA1UECgwDSElUMQwwCgYD
VQQLDANISVQxETAPBgNVBAMMCHJvY3dhbmdwMSQwIgYJKoZIhvcNAQkBFhV3YW5n
cGVuZzI5MDI5QDE2My5jb24wggEiMA0GCSqGSIb3DQEBAQUAA4IBDwAwggEKAoIB
AQDK64e39GMzgnmflT+LfjW4226+eaC+yQ5vgEooqOoDlLR0hPEKPbY0M79N0leF
HuXmqrN4tFEwu/h2LYT1xfq90vhZKlwAVeLQipxXQ8YPNgCLaLlFPTqEnBhshiSA
/z7xdAl3ueITtO01QRxooonmPUpwHMkKvsHf08M7t0nIzJwxsHKmauPO0IXVtGv/
Hqqc0teaQtaoCfTJiyCyEEP2muMSobka69lyXt6cCca0IBVjsTMhaEglI+FJw8d8
Gr3cBKuL4uTfVu6hCp6h7IZMSAC0/gC2oBKqi1L7X/GNsAjMlgkEvdx+/c2Q4twH
yflHg3N+AyO3sop4ROm4LGTDAgMBAAGjezB5MAkGA1UdEwQCMAAwLAYJYIZIAYb4
QgENBB8WHU9wZW5TU0wgR2VuZXJhdGVkIENlcnRpZmljYXRlMB0GA1UdDgQWBBTC
9EoOAY2hIQwIGJhkbxx9IydpNzAfBgNVHSMEGDAWgBQdWNzQeAeDFThIcoincGc1
JVDpETANBgkqhkiG9w0BAQsFAAOCAQEAjlTjO6vIYx9NbJkyZ64PEicsFN/j4MQn
Z9U9KxGuLfk4x3MgydRiMQr6jbp28fregjRUnH3SDxYO+QlmdPDIV6jLhjudXfIO
Rs4Vc6FTaej2lc2VC+py8qVdlKs6lYpU8/N1tyljUNyJEIlzB88NcJpd2iaSqZmF
7BOJT7waNdJ25tLJabYvYZSgxmtekLOkJwWZZsQViWy+2Iu4TkCLn7MT7GeGcXhv
hPWXJszzuus/goxXwiQfUmiwtqHMqxI0Yoy4QvBLuxPhT9Kjp9ZlMdLNMs3zj1VS
5JTfpvlm0IoSAxMjpYIUFi1Yw9TCTylk8WPbnhFqmgvlE7CJwaxpGQ==
-----END CERTIFICATE-----
