Certificate:
    Data:
        Version: 3 (0x2)
        Serial Number: 18 (0x12)
    Signature Algorithm: sha256WithRSAEncryption
        Issuer: C=ZH, ST=HLJ, L=HEB, O=HIT, OU=HIT, CN=rocwangp/emailAddress=wangpeng29029@163.com
        Validity
            Not Before: Apr 29 05:21:15 2018 GMT
            Not After : Apr 29 05:21:15 2019 GMT
        Subject: C=ZH, ST=HLJ, O=HIT, OU=HIT, CN=rocwangp/emailAddress=wangpeng29029@163.com
        Subject Public Key Info:
            Public Key Algorithm: rsaEncryption
                Public-Key: (2048 bit)
                Modulus:
                    00:a8:19:aa:32:5e:43:cd:1a:0a:cc:7c:99:92:21:
                    16:5f:9c:25:dd:a4:6d:8c:67:ec:94:0e:b3:9f:6b:
                    f7:28:b5:13:bf:77:c5:f3:51:e9:a4:04:4a:e1:43:
                    2c:ac:a8:25:ac:c4:50:01:42:d2:21:5d:1b:a5:fd:
                    15:9f:28:7c:7d:65:7b:56:b3:84:13:ca:74:30:da:
                    69:8a:d8:0d:47:57:d7:0d:0b:0d:e3:5e:ad:fc:e1:
                    0b:13:8e:55:bc:d3:47:7c:29:d5:62:56:0e:14:a8:
                    b7:87:52:27:51:d0:e6:07:2f:ef:94:18:3c:3c:30:
                    31:ad:64:7a:93:ca:e4:73:a0:88:fa:8f:3c:d0:09:
                    35:3d:46:cd:6f:f2:af:3b:3e:e8:4c:3a:c7:b2:33:
                    4c:35:57:02:c1:1e:49:10:66:98:09:db:ca:01:45:
                    8d:80:a8:9e:a7:ec:04:bb:0b:8f:4f:02:40:f3:89:
                    23:55:16:4f:ac:62:ee:8b:3d:1d:aa:11:bc:93:82:
                    3b:1a:c0:6a:e1:73:a6:e1:9e:2f:d7:52:82:69:96:
                    a0:88:0e:a8:66:d8:09:10:f2:14:0b:24:a1:75:47:
                    af:77:d4:86:22:39:a5:79:9d:55:0d:ac:ec:15:8b:
                    15:bc:be:9f:b4:62:7e:66:4d:57:48:56:76:99:04:
                    3b:17
                Exponent: 65537 (0x10001)
        X509v3 extensions:
            X509v3 Basic Constraints: 
                CA:FALSE
            Netscape Comment: 
                OpenSSL Generated Certificate
            X509v3 Subject Key Identifier: 
                47:9E:88:59:D5:8C:01:8A:05:D5:56:C8:2A:D0:E7:62:27:54:7B:4E
            X509v3 Authority Key Identifier: 
                keyid:1D:58:DC:D0:78:07:83:15:38:48:72:88:A7:70:67:35:25:50:E9:11

    Signature Algorithm: sha256WithRSAEncryption
         11:b2:db:37:b3:dd:33:00:ac:20:2a:21:96:fa:d4:39:4e:68:
         d6:5b:53:01:d9:af:3f:9d:f3:9b:44:24:ff:c1:c6:ed:21:74:
         06:cc:cd:f2:23:78:5d:85:d8:33:bd:be:23:cd:fb:60:2a:38:
         37:7d:d4:53:82:73:c4:36:bb:91:b1:a5:40:aa:0b:63:12:25:
         a4:b1:96:24:92:f3:23:a5:1c:d7:a1:af:e0:d5:02:3f:77:a0:
         b8:a7:17:1a:78:77:8e:a6:7b:59:86:a5:cc:e4:76:db:2b:9e:
         66:5e:af:92:4d:f8:12:c6:0a:87:38:ba:de:6c:c0:5e:4a:5a:
         58:1b:13:40:8e:46:ec:74:5f:20:a0:54:fe:5b:68:05:08:c7:
         6b:b0:8b:b2:13:f2:80:58:fe:02:72:ad:92:bc:fb:e5:74:77:
         87:b8:ce:f4:aa:78:37:c3:82:af:7b:5a:f8:77:52:1f:9a:89:
         a7:03:fd:6c:9a:c2:2a:b2:29:fc:c5:26:21:0a:0f:04:35:e8:
         2e:da:33:de:eb:36:ce:85:7a:e5:f5:b2:be:a0:35:1a:f2:65:
         3d:b5:12:35:1f:a6:65:65:d7:dc:a6:a7:a8:a3:64:c0:40:0d:
         ff:87:20:2b:fd:31:f1:81:91:06:f6:fd:45:4b:1f:42:7d:6e:
         51:78:4a:09
-----BEGIN CERTIFICATE-----
MIID5DCCAsygAwIBAgIBEjANBgkqhkiG9w0BAQsFADB+MQswCQYDVQQGEwJaSDEM
MAoGA1UECAwDSExKMQwwCgYDVQQHDANIRUIxDDAKBgNVBAoMA0hJVDEMMAoGA1UE
CwwDSElUMREwDwYDVQQDDAhyb2N3YW5ncDEkMCIGCSqGSIb3DQEJARYVd2FuZ3Bl
bmcyOTAyOUAxNjMuY29tMB4XDTE4MDQyOTA1MjExNVoXDTE5MDQyOTA1MjExNVow
cDELMAkGA1UEBhMCWkgxDDAKBgNVBAgMA0hMSjEMMAoGA1UECgwDSElUMQwwCgYD
VQQLDANISVQxETAPBgNVBAMMCHJvY3dhbmdwMSQwIgYJKoZIhvcNAQkBFhV3YW5n
cGVuZzI5MDI5QDE2My5jb20wggEiMA0GCSqGSIb3DQEBAQUAA4IBDwAwggEKAoIB
AQCoGaoyXkPNGgrMfJmSIRZfnCXdpG2MZ+yUDrOfa/cotRO/d8XzUemkBErhQyys
qCWsxFABQtIhXRul/RWfKHx9ZXtWs4QTynQw2mmK2A1HV9cNCw3jXq384QsTjlW8
00d8KdViVg4UqLeHUidR0OYHL++UGDw8MDGtZHqTyuRzoIj6jzzQCTU9Rs1v8q87
PuhMOseyM0w1VwLBHkkQZpgJ28oBRY2AqJ6n7AS7C49PAkDziSNVFk+sYu6LPR2q
EbyTgjsawGrhc6bhni/XUoJplqCIDqhm2AkQ8hQLJKF1R6931IYiOaV5nVUNrOwV
ixW8vp+0Yn5mTVdIVnaZBDsXAgMBAAGjezB5MAkGA1UdEwQCMAAwLAYJYIZIAYb4
QgENBB8WHU9wZW5TU0wgR2VuZXJhdGVkIENlcnRpZmljYXRlMB0GA1UdDgQWBBRH
nohZ1YwBigXVVsgq0OdiJ1R7TjAfBgNVHSMEGDAWgBQdWNzQeAeDFThIcoincGc1
JVDpETANBgkqhkiG9w0BAQsFAAOCAQEAEbLbN7PdMwCsICohlvrUOU5o1ltTAdmv
P53zm0Qk/8HG7SF0BszN8iN4XYXYM72+I837YCo4N33UU4JzxDa7kbGlQKoLYxIl
pLGWJJLzI6Uc16Gv4NUCP3eguKcXGnh3jqZ7WYalzOR22yueZl6vkk34EsYKhzi6
3mzAXkpaWBsTQI5G7HRfIKBU/ltoBQjHa7CLshPygFj+AnKtkrz75XR3h7jO9Kp4
N8OCr3ta+HdSH5qJpwP9bJrCKrIp/MUmIQoPBDXoLtoz3us2zoV65fWyvqA1GvJl
PbUSNR+mZWXX3KanqKNkwEAN/4cgK/0x8YGRBvb9RUsfQn1uUXhKCQ==
-----END CERTIFICATE-----
